target datalayout = "e-m:e-p270:32:32-p271:32:32-p272:64:64-i64:64-i128:128-f80:128-n8:16:32:64-S128"
target triple = "x86_64-pc-linux-gnu"

%struct.Mfs_Man_t_ = type { ptr, ptr, ptr, ptr, i32, ptr, ptr, ptr, ptr, ptr, ptr, ptr, ptr, i32, i32, i32, i32, ptr, ptr, i32, i32, i32, ptr, ptr, ptr, ptr, ptr, ptr, ptr, i32, i32, ptr, i32, i32, i32, [128 x i32], i32, i32, i32, i32, i32, i32, i32, i32, i32, i32, i32, i32, i32, i32, double, i32, i32, i32, i32, float, float, i64, i64, i64, i64, i64, i64, i64, i64 }
%struct.Mfs_Par_t_ = type { i32, i32, i32, i32, i32, i32, i32, i32, i32, i32, i32, i32, i32, i32, i32, i32, i32 }
%struct.Vec_Int_t_ = type { i32, i32, ptr }
%struct.Vec_Vec_t_ = type { i32, i32, ptr }
%struct.Vec_Ptr_t_ = type { i32, i32, ptr }

; Function Attrs: nounwind uwtable
define internal ptr @Vec_VecAlloc(i32 noundef %0) #0 {
  %2 = alloca i32, align 4
  %3 = alloca ptr, align 8
  store i32 %0, ptr %2, align 4
  %4 = call noalias ptr @malloc(i64 noundef 16) #7
  store ptr %4, ptr %3, align 8
  %5 = load i32, ptr %2, align 4
  %6 = icmp sgt i32 %5, 0
  br i1 %6, label %7, label %11

7:                                                ; preds = %1
  %8 = load i32, ptr %2, align 4
  %9 = icmp slt i32 %8, 8
  br i1 %9, label %10, label %11

10:                                               ; preds = %7
  store i32 8, ptr %2, align 4
  br label %11

11:                                               ; preds = %10, %7, %1
  %12 = load ptr, ptr %3, align 8
  %13 = getelementptr inbounds %struct.Vec_Vec_t_, ptr %12, i32 0, i32 1
  store i32 0, ptr %13, align 4
  %14 = load i32, ptr %2, align 4
  %15 = load ptr, ptr %3, align 8
  %16 = getelementptr inbounds %struct.Vec_Vec_t_, ptr %15, i32 0, i32 0
  store i32 %14, ptr %16, align 8
  %17 = load ptr, ptr %3, align 8
  %18 = getelementptr inbounds %struct.Vec_Vec_t_, ptr %17, i32 0, i32 0
  %19 = load i32, ptr %18, align 8
  %20 = icmp ne i32 %19, 0
  br i1 %20, label %21, label %28

21:                                               ; preds = %11
  %22 = load ptr, ptr %3, align 8
  %23 = getelementptr inbounds %struct.Vec_Vec_t_, ptr %22, i32 0, i32 0
  %24 = load i32, ptr %23, align 8
  %25 = sext i32 %24 to i64
  %26 = mul i64 8, %25
  %27 = call noalias ptr @malloc(i64 noundef %26) #7
  br label %29

28:                                               ; preds = %11
  br label %29

29:                                               ; preds = %28, %21
  %30 = phi ptr [ %27, %21 ], [ null, %28 ]
  %31 = load ptr, ptr %3, align 8
  %32 = getelementptr inbounds %struct.Vec_Vec_t_, ptr %31, i32 0, i32 2
  store ptr %30, ptr %32, align 8
  %33 = load ptr, ptr %3, align 8
  ret ptr %33
}

; Function Attrs: nounwind uwtable
define internal ptr @Vec_PtrAllocArray(ptr noundef %0, i32 noundef %1) #0 {
  %3 = alloca ptr, align 8
  %4 = alloca i32, align 4
  %5 = alloca ptr, align 8
  store ptr %0, ptr %3, align 8
  store i32 %1, ptr %4, align 4
  %6 = call noalias ptr @malloc(i64 noundef 16) #7
  store ptr %6, ptr %5, align 8
  %7 = load i32, ptr %4, align 4
  %8 = load ptr, ptr %5, align 8
  %9 = getelementptr inbounds %struct.Vec_Ptr_t_, ptr %8, i32 0, i32 1
  store i32 %7, ptr %9, align 4
  %10 = load i32, ptr %4, align 4
  %11 = load ptr, ptr %5, align 8
  %12 = getelementptr inbounds %struct.Vec_Ptr_t_, ptr %11, i32 0, i32 0
  store i32 %10, ptr %12, align 8
  %13 = load ptr, ptr %3, align 8
  %14 = load ptr, ptr %5, align 8
  %15 = getelementptr inbounds %struct.Vec_Ptr_t_, ptr %14, i32 0, i32 2
  store ptr %13, ptr %15, align 8
  %16 = load ptr, ptr %5, align 8
  ret ptr %16
}

; Function Attrs: nounwind uwtable
define internal ptr @Vec_PtrAlloc(i32 noundef %0) #0 {
  %2 = alloca i32, align 4
  %3 = alloca ptr, align 8
  store i32 %0, ptr %2, align 4
  %4 = call noalias ptr @malloc(i64 noundef 16) #7
  store ptr %4, ptr %3, align 8
  %5 = load i32, ptr %2, align 4
  %6 = icmp sgt i32 %5, 0
  br i1 %6, label %7, label %11

7:                                                ; preds = %1
  %8 = load i32, ptr %2, align 4
  %9 = icmp slt i32 %8, 8
  br i1 %9, label %10, label %11

10:                                               ; preds = %7
  store i32 8, ptr %2, align 4
  br label %11

11:                                               ; preds = %10, %7, %1
  %12 = load ptr, ptr %3, align 8
  %13 = getelementptr inbounds %struct.Vec_Ptr_t_, ptr %12, i32 0, i32 1
  store i32 0, ptr %13, align 4
  %14 = load i32, ptr %2, align 4
  %15 = load ptr, ptr %3, align 8
  %16 = getelementptr inbounds %struct.Vec_Ptr_t_, ptr %15, i32 0, i32 0
  store i32 %14, ptr %16, align 8
  %17 = load ptr, ptr %3, align 8
  %18 = getelementptr inbounds %struct.Vec_Ptr_t_, ptr %17, i32 0, i32 0
  %19 = load i32, ptr %18, align 8
  %20 = icmp ne i32 %19, 0
  br i1 %20, label %21, label %28

21:                                               ; preds = %11
  %22 = load ptr, ptr %3, align 8
  %23 = getelementptr inbounds %struct.Vec_Ptr_t_, ptr %22, i32 0, i32 0
  %24 = load i32, ptr %23, align 8
  %25 = sext i32 %24 to i64
  %26 = mul i64 8, %25
  %27 = call noalias ptr @malloc(i64 noundef %26) #7
  br label %29

28:                                               ; preds = %11
  br label %29

29:                                               ; preds = %28, %21
  %30 = phi ptr [ %27, %21 ], [ null, %28 ]
  %31 = load ptr, ptr %3, align 8
  %32 = getelementptr inbounds %struct.Vec_Ptr_t_, ptr %31, i32 0, i32 2
  store ptr %30, ptr %32, align 8
  %33 = load ptr, ptr %3, align 8
  ret ptr %33
}

; Function Attrs: nounwind uwtable
define internal ptr @Vec_VecStart(i32 noundef %0) #0 {
  %2 = alloca i32, align 4
  %3 = alloca ptr, align 8
  %4 = alloca i32, align 4
  store i32 %0, ptr %2, align 4
  %5 = load i32, ptr %2, align 4
  %6 = call ptr @Vec_VecAlloc(i32 noundef %5)
  store ptr %6, ptr %3, align 8
  store i32 0, ptr %4, align 4
  br label %7

7:                                                ; preds = %19, %1
  %8 = load i32, ptr %4, align 4
  %9 = load i32, ptr %2, align 4
  %10 = icmp slt i32 %8, %9
  br i1 %10, label %11, label %22

11:                                               ; preds = %7
  %12 = call ptr @Vec_PtrAlloc(i32 noundef 0)
  %13 = load ptr, ptr %3, align 8
  %14 = getelementptr inbounds %struct.Vec_Vec_t_, ptr %13, i32 0, i32 2
  %15 = load ptr, ptr %14, align 8
  %16 = load i32, ptr %4, align 4
  %17 = sext i32 %16 to i64
  %18 = getelementptr inbounds ptr, ptr %15, i64 %17
  store ptr %12, ptr %18, align 8
  br label %19

19:                                               ; preds = %11
  %20 = load i32, ptr %4, align 4
  %21 = add nsw i32 %20, 1
  store i32 %21, ptr %4, align 4
  br label %7, !llvm.loop !6

22:                                               ; preds = %7
  %23 = load i32, ptr %2, align 4
  %24 = load ptr, ptr %3, align 8
  %25 = getelementptr inbounds %struct.Vec_Vec_t_, ptr %24, i32 0, i32 1
  store i32 %23, ptr %25, align 4
  %26 = load ptr, ptr %3, align 8
  ret ptr %26
}

; Function Attrs: nounwind uwtable
define internal ptr @Vec_PtrAllocSimInfo(i32 noundef %0, i32 noundef %1) #0 {
  %3 = alloca i32, align 4
  %4 = alloca i32, align 4
  %5 = alloca ptr, align 8
  %6 = alloca ptr, align 8
  %7 = alloca i32, align 4
  store i32 %0, ptr %3, align 4
  store i32 %1, ptr %4, align 4
  %8 = load i32, ptr %4, align 4
  %9 = sext i32 %8 to i64
  %10 = mul i64 4, %9
  %11 = add i64 8, %10
  %12 = load i32, ptr %3, align 4
  %13 = sext i32 %12 to i64
  %14 = mul i64 %11, %13
  %15 = mul i64 1, %14
  %16 = call noalias ptr @malloc(i64 noundef %15) #7
  store ptr %16, ptr %5, align 8
  %17 = load ptr, ptr %5, align 8
  %18 = load i32, ptr %3, align 4
  %19 = sext i32 %18 to i64
  %20 = getelementptr inbounds ptr, ptr %17, i64 %19
  store ptr %20, ptr %6, align 8
  store i32 0, ptr %7, align 4
  br label %21

21:                                               ; preds = %36, %2
  %22 = load i32, ptr %7, align 4
  %23 = load i32, ptr %3, align 4
  %24 = icmp slt i32 %22, %23
  br i1 %24, label %25, label %39

25:                                               ; preds = %21
  %26 = load ptr, ptr %6, align 8
  %27 = load i32, ptr %7, align 4
  %28 = load i32, ptr %4, align 4
  %29 = mul nsw i32 %27, %28
  %30 = sext i32 %29 to i64
  %31 = getelementptr inbounds i32, ptr %26, i64 %30
  %32 = load ptr, ptr %5, align 8
  %33 = load i32, ptr %7, align 4
  %34 = sext i32 %33 to i64
  %35 = getelementptr inbounds ptr, ptr %32, i64 %34
  store ptr %31, ptr %35, align 8
  br label %36

36:                                               ; preds = %25
  %37 = load i32, ptr %7, align 4
  %38 = add nsw i32 %37, 1
  store i32 %38, ptr %7, align 4
  br label %21, !llvm.loop !4

39:                                               ; preds = %21
  %40 = load ptr, ptr %5, align 8
  %41 = load i32, ptr %3, align 4
  %42 = call ptr @Vec_PtrAllocArray(ptr noundef %40, i32 noundef %41)
  ret ptr %42
}

; Function Attrs: nounwind uwtable
define internal i32 @Abc_BitWordNum(i32 noundef %0) #0 {
  %2 = alloca i32, align 4
  store i32 %0, ptr %2, align 4
  %3 = load i32, ptr %2, align 4
  %4 = ashr i32 %3, 5
  %5 = load i32, ptr %2, align 4
  %6 = and i32 %5, 31
  %7 = icmp sgt i32 %6, 0
  %8 = zext i1 %7 to i32
  %9 = add nsw i32 %4, %8
  ret i32 %9
}

; Function Attrs: nounwind uwtable
define internal ptr @Vec_IntAlloc(i32 noundef %0) #0 {
  %2 = alloca i32, align 4
  %3 = alloca ptr, align 8
  store i32 %0, ptr %2, align 4
  %4 = call noalias ptr @malloc(i64 noundef 16) #7
  store ptr %4, ptr %3, align 8
  %5 = load i32, ptr %2, align 4
  %6 = icmp sgt i32 %5, 0
  br i1 %6, label %7, label %11

7:                                                ; preds = %1
  %8 = load i32, ptr %2, align 4
  %9 = icmp slt i32 %8, 16
  br i1 %9, label %10, label %11

10:                                               ; preds = %7
  store i32 16, ptr %2, align 4
  br label %11

11:                                               ; preds = %10, %7, %1
  %12 = load ptr, ptr %3, align 8
  %13 = getelementptr inbounds %struct.Vec_Int_t_, ptr %12, i32 0, i32 1
  store i32 0, ptr %13, align 4
  %14 = load i32, ptr %2, align 4
  %15 = load ptr, ptr %3, align 8
  %16 = getelementptr inbounds %struct.Vec_Int_t_, ptr %15, i32 0, i32 0
  store i32 %14, ptr %16, align 8
  %17 = load ptr, ptr %3, align 8
  %18 = getelementptr inbounds %struct.Vec_Int_t_, ptr %17, i32 0, i32 0
  %19 = load i32, ptr %18, align 8
  %20 = icmp ne i32 %19, 0
  br i1 %20, label %21, label %28

21:                                               ; preds = %11
  %22 = load ptr, ptr %3, align 8
  %23 = getelementptr inbounds %struct.Vec_Int_t_, ptr %22, i32 0, i32 0
  %24 = load i32, ptr %23, align 8
  %25 = sext i32 %24 to i64
  %26 = mul i64 4, %25
  %27 = call noalias ptr @malloc(i64 noundef %26) #7
  br label %29

28:                                               ; preds = %11
  br label %29

29:                                               ; preds = %28, %21
  %30 = phi ptr [ %27, %21 ], [ null, %28 ]
  %31 = load ptr, ptr %3, align 8
  %32 = getelementptr inbounds %struct.Vec_Int_t_, ptr %31, i32 0, i32 2
  store ptr %30, ptr %32, align 8
  %33 = load ptr, ptr %3, align 8
  ret ptr %33
}

; Function Attrs: nounwind uwtable
define ptr @Mfs_ManAlloc(ptr noundef %0) #0 {
  %2 = alloca ptr, align 8
  %3 = alloca ptr, align 8
  store ptr %0, ptr %2, align 8
  %4 = call noalias ptr @malloc(i64 noundef 904) #7
  store ptr %4, ptr %3, align 8
  %5 = load ptr, ptr %3, align 8
  call void @llvm.memset.p0.i64(ptr align 8 %5, i8 0, i64 904, i1 false)
  %6 = load ptr, ptr %2, align 8
  %7 = load ptr, ptr %3, align 8
  %8 = getelementptr inbounds %struct.Mfs_Man_t_, ptr %7, i32 0, i32 0
  store ptr %6, ptr %8, align 8
  %9 = call ptr @Vec_IntAlloc(i32 noundef 100)
  %10 = load ptr, ptr %3, align 8
  %11 = getelementptr inbounds %struct.Mfs_Man_t_, ptr %10, i32 0, i32 10
  store ptr %9, ptr %11, align 8
  %12 = call ptr @Vec_IntAlloc(i32 noundef 100)
  %13 = load ptr, ptr %3, align 8
  %14 = getelementptr inbounds %struct.Mfs_Man_t_, ptr %13, i32 0, i32 11
  store ptr %12, ptr %14, align 8
  %15 = call ptr @Vec_IntAlloc(i32 noundef 100)
  %16 = load ptr, ptr %3, align 8
  %17 = getelementptr inbounds %struct.Mfs_Man_t_, ptr %16, i32 0, i32 9
  store ptr %15, ptr %17, align 8
  %18 = load ptr, ptr %3, align 8
  %19 = getelementptr inbounds %struct.Mfs_Man_t_, ptr %18, i32 0, i32 0
  %20 = load ptr, ptr %19, align 8
  %21 = getelementptr inbounds %struct.Mfs_Par_t_, ptr %20, i32 0, i32 3
  %22 = load i32, ptr %21, align 4
  %23 = add nsw i32 %22, 12
  %24 = call i32 @Abc_BitWordNum(i32 noundef %23)
  %25 = load ptr, ptr %3, align 8
  %26 = getelementptr inbounds %struct.Mfs_Man_t_, ptr %25, i32 0, i32 13
  store i32 %24, ptr %26, align 8
  %27 = load ptr, ptr %3, align 8
  %28 = getelementptr inbounds %struct.Mfs_Man_t_, ptr %27, i32 0, i32 0
  %29 = load ptr, ptr %28, align 8
  %30 = getelementptr inbounds %struct.Mfs_Par_t_, ptr %29, i32 0, i32 3
  %31 = load i32, ptr %30, align 4
  %32 = add nsw i32 %31, 12
  %33 = add nsw i32 %32, 1
  %34 = load ptr, ptr %3, align 8
  %35 = getelementptr inbounds %struct.Mfs_Man_t_, ptr %34, i32 0, i32 13
  %36 = load i32, ptr %35, align 8
  %37 = call ptr @Vec_PtrAllocSimInfo(i32 noundef %33, i32 noundef %36)
  %38 = load ptr, ptr %3, align 8
  %39 = getelementptr inbounds %struct.Mfs_Man_t_, ptr %38, i32 0, i32 12
  store ptr %37, ptr %39, align 8
  %40 = call ptr (...) @Int_ManAlloc()
  %41 = load ptr, ptr %3, align 8
  %42 = getelementptr inbounds %struct.Mfs_Man_t_, ptr %41, i32 0, i32 25
  store ptr %40, ptr %42, align 8
  %43 = call ptr @Vec_IntAlloc(i32 noundef 0)
  %44 = load ptr, ptr %3, align 8
  %45 = getelementptr inbounds %struct.Mfs_Man_t_, ptr %44, i32 0, i32 26
  store ptr %43, ptr %45, align 8
  %46 = call ptr @Vec_VecStart(i32 noundef 32)
  %47 = load ptr, ptr %3, align 8
  %48 = getelementptr inbounds %struct.Mfs_Man_t_, ptr %47, i32 0, i32 27
  store ptr %46, ptr %48, align 8
  %49 = call ptr @Vec_PtrAlloc(i32 noundef 32)
  %50 = load ptr, ptr %3, align 8
  %51 = getelementptr inbounds %struct.Mfs_Man_t_, ptr %50, i32 0, i32 28
  store ptr %49, ptr %51, align 8
  %52 = load ptr, ptr %3, align 8
  ret ptr %52
}