; Function Attrs: nounwind uwtable
define noalias noundef ptr @Mfs_ManAlloc(ptr noundef %0) local_unnamed_addr #0 {
  %calloc19 = tail call dereferenceable_or_null(904) ptr @calloc(i64 1, i64 904)
  store ptr %0, ptr %calloc19, align 8
  %2 = tail call noalias dereferenceable_or_null(16) ptr @malloc(i64 noundef 16) #11
  %3 = getelementptr inbounds nuw i8, ptr %2, i64 4
  store i32 0, ptr %3, align 4
  store i32 100, ptr %2, align 8
  %4 = tail call noalias dereferenceable_or_null(400) ptr @malloc(i64 noundef 400) #11
  %5 = getelementptr inbounds nuw i8, ptr %2, i64 8
  store ptr %4, ptr %5, align 8
  %6 = getelementptr inbounds nuw i8, ptr %calloc19, i64 80
  store ptr %2, ptr %6, align 8
  %7 = tail call noalias dereferenceable_or_null(16) ptr @malloc(i64 noundef 16) #11
  %8 = getelementptr inbounds nuw i8, ptr %7, i64 4
  store i32 0, ptr %8, align 4
  store i32 100, ptr %7, align 8
  %9 = tail call noalias dereferenceable_or_null(400) ptr @malloc(i64 noundef 400) #11
  %10 = getelementptr inbounds nuw i8, ptr %7, i64 8
  store ptr %9, ptr %10, align 8
  %11 = getelementptr inbounds nuw i8, ptr %calloc19, i64 88
  store ptr %7, ptr %11, align 8
  %12 = tail call noalias dereferenceable_or_null(16) ptr @malloc(i64 noundef 16) #11
  %13 = getelementptr inbounds nuw i8, ptr %12, i64 4
  store i32 0, ptr %13, align 4
  store i32 100, ptr %12, align 8
  %14 = tail call noalias dereferenceable_or_null(400) ptr @malloc(i64 noundef 400) #11
  %15 = getelementptr inbounds nuw i8, ptr %12, i64 8
  store ptr %14, ptr %15, align 8
  %16 = getelementptr inbounds nuw i8, ptr %calloc19, i64 72
  store ptr %12, ptr %16, align 8
  %17 = getelementptr inbounds nuw i8, ptr %0, i64 12
  %18 = load i32, ptr %17, align 4
  %19 = add nsw i32 %18, 12
  %20 = ashr i32 %19, 5
  %21 = and i32 %19, 31
  %22 = icmp ne i32 %21, 0
  %23 = zext i1 %22 to i32
  %24 = add nsw i32 %20, %23
  %25 = getelementptr inbounds nuw i8, ptr %calloc19, i64 104
  store i32 %24, ptr %25, align 8
  %26 = add nsw i32 %18, 13
  %27 = sext i32 %24 to i64
  %28 = shl nsw i64 %27, 2
  %29 = add nsw i64 %28, 8
  %30 = sext i32 %26 to i64
  %31 = mul nsw i64 %29, %30
  %32 = tail call noalias ptr @malloc(i64 noundef %31) #11
  %33 = getelementptr inbounds ptr, ptr %32, i64 %30
  %34 = icmp sgt i32 %18, -13
  br i1 %34, label %.lr.ph.preheader.i, label %Vec_PtrAllocSimInfo.exit

.lr.ph.preheader.i:                               ; preds = %1
  %wide.trip.count.i = zext nneg i32 %26 to i64
  br label %.lr.ph.i

.lr.ph.i:                                         ; preds = %.lr.ph.i, %.lr.ph.preheader.i
  %indvars.iv.i = phi i64 [ 0, %.lr.ph.preheader.i ], [ %indvars.iv.next.i, %.lr.ph.i ]
  %35 = mul nsw i64 %indvars.iv.i, %27
  %36 = getelementptr inbounds i32, ptr %33, i64 %35
  %37 = getelementptr inbounds nuw ptr, ptr %32, i64 %indvars.iv.i
  store ptr %36, ptr %37, align 8
  %indvars.iv.next.i = add nuw nsw i64 %indvars.iv.i, 1
  %exitcond.not.i = icmp eq i64 %indvars.iv.next.i, %wide.trip.count.i
  br i1 %exitcond.not.i, label %Vec_PtrAllocSimInfo.exit, label %.lr.ph.i, !llvm.loop !4

Vec_PtrAllocSimInfo.exit:                         ; preds = %.lr.ph.i, %1
  %38 = tail call noalias dereferenceable_or_null(16) ptr @malloc(i64 noundef 16) #11
  %39 = getelementptr inbounds nuw i8, ptr %38, i64 4
  store i32 %26, ptr %39, align 4
  store i32 %26, ptr %38, align 8
  %40 = getelementptr inbounds nuw i8, ptr %38, i64 8
  store ptr %32, ptr %40, align 8
  %41 = getelementptr inbounds nuw i8, ptr %calloc19, i64 96
  store ptr %38, ptr %41, align 8
  %42 = tail call ptr (...) @Int_ManAlloc() #12
  %43 = getelementptr inbounds nuw i8, ptr %calloc19, i64 176
  store ptr %42, ptr %43, align 8
  %calloc = tail call dereferenceable_or_null(16) ptr @calloc(i64 1, i64 16)
  %44 = getelementptr inbounds nuw i8, ptr %calloc19, i64 184
  store ptr %calloc, ptr %44, align 8
  %45 = tail call noalias dereferenceable_or_null(16) ptr @malloc(i64 noundef 16) #11
  store i32 32, ptr %45, align 8
  %46 = tail call noalias dereferenceable_or_null(256) ptr @malloc(i64 noundef 256) #11
  %47 = getelementptr inbounds nuw i8, ptr %45, i64 8
  store ptr %46, ptr %47, align 8
  br label %48

48:                                               ; preds = %48, %Vec_PtrAllocSimInfo.exit
  %indvars.iv.i16 = phi i64 [ 0, %Vec_PtrAllocSimInfo.exit ], [ %indvars.iv.next.i17, %48 ]
  %calloc.i = tail call dereferenceable_or_null(16) ptr @calloc(i64 1, i64 16)
  %49 = getelementptr inbounds nuw ptr, ptr %46, i64 %indvars.iv.i16
  store ptr %calloc.i, ptr %49, align 8
  %indvars.iv.next.i17 = add nuw nsw i64 %indvars.iv.i16, 1
  %exitcond.not.i18 = icmp eq i64 %indvars.iv.next.i17, 32
  br i1 %exitcond.not.i18, label %Vec_VecStart.exit, label %48, !llvm.loop !6

Vec_VecStart.exit:                                ; preds = %48
  %50 = getelementptr inbounds nuw i8, ptr %45, i64 4
  store i32 32, ptr %50, align 4
  %51 = getelementptr inbounds nuw i8, ptr %calloc19, i64 192
  store ptr %45, ptr %51, align 8
  %52 = tail call noalias dereferenceable_or_null(16) ptr @malloc(i64 noundef 16) #11
  %53 = getelementptr inbounds nuw i8, ptr %52, i64 4
  store i32 0, ptr %53, align 4
  store i32 32, ptr %52, align 8
  %54 = tail call noalias dereferenceable_or_null(256) ptr @malloc(i64 noundef 256) #11
  %55 = getelementptr inbounds nuw i8, ptr %52, i64 8
  store ptr %54, ptr %55, align 8
  %56 = getelementptr inbounds nuw i8, ptr %calloc19, i64 200
  store ptr %52, ptr %56, align 8
  ret ptr %calloc19
}